; Function Attrs: inlinehint mustprogress uwtable
define internal void @"_ZZN5arrow6dlpack11ExportArrayERKSt10shared_ptrINS_5ArrayEEEN3$_08__invokeEP15DLManagedTensor"(ptr noundef readonly captures(none) %0) #8 align 2 personality ptr @__gxx_personality_v0 {
  %2 = getelementptr i8, ptr %0, i64 48
  %.val = load ptr, ptr %2, align 8, !tbaa !144
  %3 = icmp eq ptr %.val, null
  br i1 %3, label %"_ZZN5arrow6dlpack11ExportArrayERKSt10shared_ptrINS_5ArrayEEENK3$_0clEP15DLManagedTensor.exit", label %4

4:                                                ; preds = %1
  %5 = getelementptr i8, ptr %.val, i64 8
  %.val.i = load ptr, ptr %5, align 8, !tbaa !21
  %.not.i.i.i.i = icmp eq ptr %.val.i, null
  br i1 %.not.i.i.i.i, label %_ZN5arrow6dlpack12_GLOBAL__N_110ManagerCtxD2Ev.exit.i, label %6

6:                                                ; preds = %4
  %7 = getelementptr inbounds nuw i8, ptr %.val.i, i64 8
  %8 = load atomic i64, ptr %7 acquire, align 8
  %9 = icmp eq i64 %8, 4294967297
  %10 = trunc i64 %8 to i32
  br i1 %9, label %11, label %19

11:                                               ; preds = %6
  store i32 0, ptr %7, align 8, !tbaa !124
  %12 = getelementptr inbounds nuw i8, ptr %.val.i, i64 12
  store i32 0, ptr %12, align 4, !tbaa !126
  %13 = load ptr, ptr %.val.i, align 8, !tbaa !28
  %14 = getelementptr inbounds nuw i8, ptr %13, i64 16
  %15 = load ptr, ptr %14, align 8
  tail call void %15(ptr noundef nonnull align 8 dereferenceable(16) %.val.i) #17
  %16 = load ptr, ptr %.val.i, align 8, !tbaa !28
  %17 = getelementptr inbounds nuw i8, ptr %16, i64 24
  %18 = load ptr, ptr %17, align 8
  tail call void %18(ptr noundef nonnull align 8 dereferenceable(16) %.val.i) #17
  br label %_ZN5arrow6dlpack12_GLOBAL__N_110ManagerCtxD2Ev.exit.i

19:                                               ; preds = %6
  %20 = load i8, ptr @__libc_single_threaded, align 1, !tbaa !22
  %.not.i.i.i.i.i = icmp eq i8 %20, 0
  br i1 %.not.i.i.i.i.i, label %23, label %21

21:                                               ; preds = %19
  %22 = add nsw i32 %10, -1
  store i32 %22, ptr %7, align 4, !tbaa !23
  br label %_ZN9__gnu_cxx27__exchange_and_add_dispatchEPii.exit.i.i.i.i.i

23:                                               ; preds = %19
  %24 = atomicrmw volatile add ptr %7, i32 -1 acq_rel, align 4
  br label %_ZN9__gnu_cxx27__exchange_and_add_dispatchEPii.exit.i.i.i.i.i

_ZN9__gnu_cxx27__exchange_and_add_dispatchEPii.exit.i.i.i.i.i: ; preds = %23, %21
  %.0.i.i.i.i.i.i = phi i32 [ %10, %21 ], [ %24, %23 ]
  %25 = icmp eq i32 %.0.i.i.i.i.i.i, 1
  br i1 %25, label %26, label %_ZN5arrow6dlpack12_GLOBAL__N_110ManagerCtxD2Ev.exit.i, !prof !127

26:                                               ; preds = %_ZN9__gnu_cxx27__exchange_and_add_dispatchEPii.exit.i.i.i.i.i
  tail call void @_ZNSt16_Sp_counted_baseILN9__gnu_cxx12_Lock_policyE2EE24_M_release_last_use_coldEv(ptr noundef nonnull align 8 dereferenceable(16) %.val.i) #17
  br label %_ZN5arrow6dlpack12_GLOBAL__N_110ManagerCtxD2Ev.exit.i

_ZN5arrow6dlpack12_GLOBAL__N_110ManagerCtxD2Ev.exit.i: ; preds = %26, %_ZN9__gnu_cxx27__exchange_and_add_dispatchEPii.exit.i.i.i.i.i, %11, %4
  tail call void @_ZdlPvm(ptr noundef nonnull %.val, i64 noundef 80) #18
  br label %"_ZZN5arrow6dlpack11ExportArrayERKSt10shared_ptrINS_5ArrayEEENK3$_0clEP15DLManagedTensor.exit"

"_ZZN5arrow6dlpack11ExportArrayERKSt10shared_ptrINS_5ArrayEEENK3$_0clEP15DLManagedTensor.exit": ; preds = %1, %_ZN5arrow6dlpack12_GLOBAL__N_110ManagerCtxD2Ev.exit.i
  ret void
}